Certificate:
    Data:
        Version: 3 (0x2)
        Serial Number: 1 (0x1)
        Signature Algorithm: sha256WithRSAEncryption
        Issuer: C=US, ST=Unset, L=Unset, O=Unset, CN=www.example.com
        Validity
            Not Before: Mar 31 05:28:05 2015 GMT
            Not After : Mar 28 05:28:05 2025 GMT
        Subject: C=US, ST=Unset, O=Unset, CN=www.example.com
        Subject Public Key Info:
            Public Key Algorithm: rsaEncryption
            RSA Public Key: (2048 bit)
                Modulus (2048 bit):
                    00:b9:b1:f7:af:4a:28:dd:d7:74:e6:95:03:33:44:
                    e3:f3:3d:65:cd:bf:ef:30:ca:4e:e6:22:c7:29:2f:
                    d0:0b:63:69:37:d2:64:05:05:1c:67:3c:c1:88:02:
                    54:0a:97:14:f4:1d:f0:41:2d:bd:f9:c2:fb:21:96:
                    3f:85:08:c6:c7:b6:7d:68:42:24:df:16:f6:f1:50:
                    b6:eb:35:c7:c7:0c:4d:f5:81:a1:fe:7e:33:ce:2a:
                    8c:20:67:99:fc:05:84:0f:b7:7b:42:d2:9b:c1:c7:
                    5d:4b:7a:e9:f6:e4:88:71:0a:2a:0b:63:57:03:16:
                    45:09:92:2b:1f:88:42:28:e2:d8:a4:42:32:ab:03:
                    02:a5:52:c6:d9:dd:7c:37:15:83:d7:08:57:d3:c1:
                    f1:b2:84:a1:78:e6:ad:ba:c5:3c:33:b3:a3:2b:6d:
                    67:d5:9d:f8:b1:df:bb:ae:a8:d1:e7:62:d6:66:ea:
                    48:ac:0f:52:58:17:56:97:75:ef:5b:1c:de:0e:59:
                    c6:a0:ed:99:34:b1:83:5f:0c:7c:c6:97:d8:b1:d6:
                    85:28:6b:32:0c:69:f6:b2:5f:73:a9:8e:75:d7:d9:
                    56:f9:1c:78:07:7f:0c:1a:a9:6e:66:43:0c:a5:20:
                    e5:5e:4e:5a:0b:9b:61:16:76:2d:02:7d:38:d5:25:
                    1f:07
                Exponent: 65537 (0x10001)
        X509v3 extensions:
            X509v3 Basic Constraints: 
                CA:FALSE
            X509v3 Subject Key Identifier: 
                78:D6:49:B0:49:C5:51:A2:B9:0C:9D:D4:AC:B7:EE:6D:15:D3:8F:84
            X509v3 Authority Key Identifier: 
                keyid:98:1F:30:13:3C:AF:02:50:41:92:FE:FB:AD:7D:0C:DC:2A:4C:57:C1

    Signature Algorithm: sha256WithRSAEncryption
        1e:23:68:2d:51:d9:8a:85:68:ec:6b:2c:68:07:97:68:95:47:
        12:f5:71:fd:7b:4d:de:5f:95:88:d4:aa:36:67:74:07:47:7f:
        74:c1:b6:57:22:9a:04:d4:6c:af:cb:e2:4e:69:3c:81:fc:b1:
        62:d3:8c:02:ac:58:79:0f:60:49:15:c9:17:ae:be:6f:4e:fd:
        ff:b0:f4:3f:f3:f0:a3:40:b0:f2:98:f5:3e:34:c7:3a:46:a3:
        88:c5:6b:ef:07:59:0b:14:f1:63:94:5a:ea:fb:89:4a:7a:94:
        36:81:4c:ad:f1:49:50:ca:17:78:5c:8a:7f:81:e0:38:ce:6c:
        e9:6c:14:94:08:6e:d5:1e:b8:3e:9d:9a:38:d0:3c:d3:92:10:
        6f:33:85:89:87:32:cc:dd:c6:8c:ed:e7:bd:c8:fa:7a:f1:32:
        55:e7:cc:ec:1a:45:4b:39:f6:a1:f4:0e:52:f2:9f:60:1e:2a:
        c5:53:4a:66:c4:7f:e0:02:3a:61:78:0b:02:a3:4f:68:61:d9:
        31:27:3c:0f:e5:eb:2d:6d:fb:11:bb:cd:13:87:e2:3f:22:92:
        3e:24:53:64:3b:d3:35:23:7c:bf:af:a0:b8:5d:b6:64:42:f2:
        82:e5:b4:fe:15:57:83:7e:77:61:10:67:89:ee:39:fc:e0:ec:
        ad:f3:9b:86
-----BEGIN CERTIFICATE-----
MIIDZjCCAk6gAwIBAgIBATANBgkqhkiG9w0BAQsFADBXMQswCQYDVQQGEwJVUzEO
MAwGA1UECAwFVW5zZXQxDjAMBgNVBAcMBVVuc2V0MQ4wDAYDVQQKDAVVbnNldDEY
MBYGA1UEAwwPd3d3LmV4YW1wbGUuY29tMB4XDTE1MDMzMTA1MjgwNVoXDTI1MDMy
ODA1MjgwNVowRzELMAkGA1UEBhMCVVMxDjAMBgNVBAgMBVVuc2V0MQ4wDAYDVQQK
DAVVbnNldDEYMBYGA1UEAwwPd3d3LmV4YW1wbGUuY29tMIIBIjANBgkqhkiG9w0B
AQEFAAOCAQ8AMIIBCgKCAQEAubH3r0oo3dd05pUDM0Tj8z1lzb/vMMpO5iLHKS/Q
C2NpN9JkBQUcZzzBiAJUCpcU9B3wQS29+cL7IZY/hQjGx7Z9aEIk3xb28VC26zXH
xwxN9YGh/n4zziqMIGeZ/AWED7d7QtKbwcddS3rp9uSIcQoqC2NXAxZFCZIrH4hC
KOLYpEIyqwMCpVLG2d18NxWD1whX08HxsoSheOatusU8M7OjK21n1Z34sd+7rqjR
52LWZupIrA9SWBdWl3XvWxzeDlnGoO2ZNLGDXwx8xpfYsdaFKGsyDGn2sl9zqY51
19lW+Rx4B38MGqluZkMMpSDlXk5aC5thFnYtAn041SUfBwIDAQABo00wSzAJBgNV
HRMEAjAAMB0GA1UdDgQWBBR41kmwScVRorkMndSst+5tFdOPhDAfBgNVHSMEGDAW
gBSYHzATPK8CUEGS/vutfQzcKkxXwTANBgkqhkiG9w0BAQsFAAOCAQEAHiNoLVHZ
ioVo7GssaAeXaJVHEvVx/XtN3l+ViNSqNmd0B0d/dMG2VyKaBNRsr8viTmk8gfyx
YtOMAqxYeQ9gSRXJF66+b079/7D0P/Pwo0Cw8pj1PjTHOkajiMVr7wdZCxTxY5Ra
6vuJSnqUNoFMrfFJUMoXeFyKf4HgOM5s6WwUlAhu1R64Pp2aONA805IQbzOFiYcy
zN3GjO3nvcj6evEyVefM7BpFSzn2ofQOUvKfYB4qxVNKZsR/4AI6YXgLAqNPaGHZ
MSc8D+XrLW37EbvNE4fiPyKSPiRTZDvTNSN8v6+guF22ZELyguW0/hVXg353YRBn
ie45/ODsrfObhg==
-----END CERTIFICATE-----
